target datalayout = "e-m:e-p270:32:32-p271:32:32-p272:64:64-i64:64-i128:128-f80:128-n8:16:32:64-S128"
target triple = "x86_64-pc-linux-gnu"

@hf_mp4_ftyp_brand = internal global i32 0, align 4
@hf_mp4_ftyp_ver = internal global i32 0, align 4
@hf_mp4_ftyp_add_brand = internal global i32 0, align 4

; Function Attrs: null_pointer_is_valid sspstrong uwtable
define internal i32 @dissect_mp4_ftyp_body(ptr noundef %0, i32 noundef %1, i32 noundef %2, ptr noundef %3, i32 noundef %4, ptr noundef %5) #0 {
  %7 = alloca ptr, align 8
  %8 = alloca i32, align 4
  %9 = alloca i32, align 4
  %10 = alloca ptr, align 8
  %11 = alloca i32, align 4
  %12 = alloca ptr, align 8
  %13 = alloca i32, align 4
  store ptr %0, ptr %7, align 8
  store i32 %1, ptr %8, align 4
  store i32 %2, ptr %9, align 4
  store ptr %3, ptr %10, align 8
  store i32 %4, ptr %11, align 4
  store ptr %5, ptr %12, align 8
  call void @llvm.lifetime.start.p0(i64 4, ptr %13) #7
  %14 = load i32, ptr %8, align 4
  store i32 %14, ptr %13, align 4
  %15 = load ptr, ptr %12, align 8
  %16 = load i32, ptr @hf_mp4_ftyp_brand, align 4
  %17 = load ptr, ptr %7, align 8
  %18 = load i32, ptr %8, align 4
  %19 = call ptr @proto_tree_add_item(ptr noundef %15, i32 noundef %16, ptr noundef %17, i32 noundef %18, i32 noundef 4, i32 noundef 0)
  %20 = load i32, ptr %8, align 4
  %21 = add i32 %20, 4
  store i32 %21, ptr %8, align 4
  %22 = load ptr, ptr %12, align 8
  %23 = load i32, ptr @hf_mp4_ftyp_ver, align 4
  %24 = load ptr, ptr %7, align 8
  %25 = load i32, ptr %8, align 4
  %26 = call ptr @proto_tree_add_item(ptr noundef %22, i32 noundef %23, ptr noundef %24, i32 noundef %25, i32 noundef 4, i32 noundef 0)
  %27 = load i32, ptr %8, align 4
  %28 = add i32 %27, 4
  store i32 %28, ptr %8, align 4
  br label %29

29:                                               ; preds = %35, %6
  %30 = load i32, ptr %8, align 4
  %31 = load i32, ptr %13, align 4
  %32 = sub i32 %30, %31
  %33 = load i32, ptr %9, align 4
  %34 = icmp slt i32 %32, %33
  br i1 %34, label %35, label %43

35:                                               ; preds = %29
  %36 = load ptr, ptr %12, align 8
  %37 = load i32, ptr @hf_mp4_ftyp_add_brand, align 4
  %38 = load ptr, ptr %7, align 8
  %39 = load i32, ptr %8, align 4
  %40 = call ptr @proto_tree_add_item(ptr noundef %36, i32 noundef %37, ptr noundef %38, i32 noundef %39, i32 noundef 4, i32 noundef 0)
  %41 = load i32, ptr %8, align 4
  %42 = add i32 %41, 4
  store i32 %42, ptr %8, align 4
  br label %29, !llvm.loop !9

43:                                               ; preds = %29
  %44 = load i32, ptr %8, align 4
  %45 = load i32, ptr %13, align 4
  %46 = sub i32 %44, %45
  call void @llvm.lifetime.end.p0(i64 4, ptr %13) #7
  ret i32 %46
}