; Function Attrs: null_pointer_is_valid sspstrong uwtable
define internal fastcc void @dissect_mp4_ftyp_body(ptr noundef %0, i32 noundef %1, i32 noundef %2, ptr noundef %3) unnamed_addr #0 {
  %5 = load i32, ptr @hf_mp4_ftyp_brand, align 4
  %6 = tail call ptr @proto_tree_add_item(ptr noundef %3, i32 noundef %5, ptr noundef %0, i32 noundef %1, i32 noundef 4, i32 noundef 0)
  %7 = add i32 %1, 4
  %8 = load i32, ptr @hf_mp4_ftyp_ver, align 4
  %9 = tail call ptr @proto_tree_add_item(ptr noundef %3, i32 noundef %8, ptr noundef %0, i32 noundef %7, i32 noundef 4, i32 noundef 0)
  %10 = icmp sgt i32 %2, 8
  br i1 %10, label %.lr.ph.preheader, label %._crit_edge

.lr.ph.preheader:                                 ; preds = %4
  %11 = add i32 %1, 8
  br label %.lr.ph

.lr.ph:                                           ; preds = %.lr.ph.preheader, %.lr.ph
  %.01 = phi i32 [ %14, %.lr.ph ], [ %11, %.lr.ph.preheader ]
  %12 = load i32, ptr @hf_mp4_ftyp_add_brand, align 4
  %13 = tail call ptr @proto_tree_add_item(ptr noundef %3, i32 noundef %12, ptr noundef %0, i32 noundef %.01, i32 noundef 4, i32 noundef 0)
  %14 = add i32 %.01, 4
  %15 = sub i32 %14, %1
  %16 = icmp slt i32 %15, %2
  br i1 %16, label %.lr.ph, label %._crit_edge, !llvm.loop !9

._crit_edge:                                      ; preds = %.lr.ph, %4
  ret void
}